Certificate:
    Data:
        Version: 3 (0x2)
        Serial Number: 1 (0x1)
        Signature Algorithm: sha1WithRSAEncryption
        Issuer: CN=hackingwithpentesterlab.link
        Validity
            Not Before: May  6 07:43:07 2021 GMT
            Not After : May  6 07:43:07 2022 GMT
        Subject: C=AU, ST=Some-State, O=Internet Widgits Pty Ltd, CN=mitm4.pentesterlab.com
        Subject Public Key Info:
            Public Key Algorithm: rsaEncryption
                RSA Public-Key: (2048 bit)
                Modulus:
                    00:ad:a8:9e:63:9f:99:71:79:49:fe:1b:c2:2c:fa:
                    d2:83:98:c1:f8:fd:79:39:d6:c1:40:2b:6f:a2:97:
                    ad:ca:05:2d:d9:49:82:5c:1e:46:03:b3:bb:2d:df:
                    63:ea:ca:70:ad:83:36:c0:f8:e8:5a:76:71:d1:ec:
                    d5:e8:88:58:f6:29:d5:a1:65:f4:2e:d5:68:90:71:
                    db:b4:99:5a:6f:a1:2d:43:6a:b1:bc:a1:20:d7:13:
                    a3:71:8e:c8:06:40:dc:f8:bf:0e:68:d7:c8:3a:be:
                    c9:ae:94:a8:51:cf:c2:3f:18:83:ad:8b:54:61:a8:
                    7d:e0:c4:5c:09:01:22:e3:32:64:55:3d:9b:a5:b3:
                    da:7f:72:8f:92:6b:58:37:f3:0b:cb:f2:be:71:ed:
                    b8:03:f4:69:3b:09:33:6f:92:a8:76:8b:3f:91:b7:
                    25:89:d5:62:93:a6:a6:42:ec:a6:e6:b3:bb:63:c1:
                    74:f0:5a:69:91:b4:02:f9:97:89:30:98:1a:b4:93:
                    7e:6a:f4:16:de:f5:23:34:8e:9e:90:6f:68:ed:5c:
                    38:bf:4c:38:8f:38:e1:e5:49:ee:9f:53:b1:f3:52:
                    2c:cd:d3:05:e7:23:8e:03:aa:26:19:d7:77:dc:5c:
                    ae:ed:6f:3b:92:a2:f6:5c:dc:09:56:8d:b1:9f:51:
                    56:2d
                Exponent: 65537 (0x10001)
        X509v3 extensions:
            X509v3 Basic Constraints: 
                CA:FALSE
            Netscape Comment: 
                OpenSSL Generated Certificate
            X509v3 Subject Key Identifier: 
                60:F7:EC:D6:AB:F3:FC:1F:22:37:07:90:11:1B:BA:02:39:2C:48:A0
            X509v3 Authority Key Identifier: 
                keyid:5B:8A:15:66:45:F1:B4:0E:96:74:D7:66:FE:DF:38:B0:98:14:FB:04

    Signature Algorithm: sha1WithRSAEncryption
         44:67:c1:80:77:18:a2:42:94:47:b7:63:4e:e6:98:ad:18:f9:
         67:52:8d:83:59:9a:15:09:18:aa:60:c8:16:cc:b6:c9:7e:a9:
         a2:80:79:c5:58:c1:f0:ba:bd:c2:dd:b6:bb:90:0e:14:f6:81:
         27:63:12:ff:77:12:e9:eb:bb:2c:8d:e2:9a:6f:17:cc:05:9d:
         3f:19:d5:7f:27:3a:13:97:96:7b:41:2a:14:d2:df:47:19:9c:
         9a:7a:2e:0f:98:36:48:e8:ab:3c:c4:14:a6:55:2a:ea:a6:b0:
         1b:24:ba:bf:5e:31:16:95:a3:54:84:ae:69:a6:eb:5e:32:87:
         d8:73:bc:95:90:a6:47:e5:7f:0b:bb:9b:0e:44:57:42:d9:b3:
         fc:87:13:16:62:1b:2d:95:87:43:ab:cd:b2:19:8e:39:70:14:
         a5:e5:a9:90:08:be:2e:8f:93:26:df:bc:ed:bd:72:ff:b5:0a:
         60:73:50:01:fe:66:d5:ff:40:66:bc:77:f7:4f:09:5e:ab:d0:
         78:7f:e0:27:4f:fa:20:13:09:47:22:6d:ec:f4:b1:25:7a:f6:
         44:27:d2:49:b6:6c:4e:db:aa:98:1e:bc:74:06:02:4c:3e:51:
         4a:9e:f8:1b:c1:9e:27:41:ce:32:1b:dd:99:43:42:02:19:46:
         7a:57:2b:b3
-----BEGIN CERTIFICATE-----
MIIDgzCCAmugAwIBAgIBATANBgkqhkiG9w0BAQUFADAnMSUwIwYDVQQDExxoYWNr
aW5nd2l0aHBlbnRlc3RlcmxhYi5saW5rMB4XDTIxMDUwNjA3NDMwN1oXDTIyMDUw
NjA3NDMwN1owZjELMAkGA1UEBhMCQVUxEzARBgNVBAgMClNvbWUtU3RhdGUxITAf
BgNVBAoMGEludGVybmV0IFdpZGdpdHMgUHR5IEx0ZDEfMB0GA1UEAwwWbWl0bTQu
cGVudGVzdGVybGFiLmNvbTCCASIwDQYJKoZIhvcNAQEBBQADggEPADCCAQoCggEB
AK2onmOfmXF5Sf4bwiz60oOYwfj9eTnWwUArb6KXrcoFLdlJglweRgOzuy3fY+rK
cK2DNsD46Fp2cdHs1eiIWPYp1aFl9C7VaJBx27SZWm+hLUNqsbyhINcTo3GOyAZA
3Pi/DmjXyDq+ya6UqFHPwj8Yg62LVGGofeDEXAkBIuMyZFU9m6Wz2n9yj5JrWDfz
C8vyvnHtuAP0aTsJM2+SqHaLP5G3JYnVYpOmpkLspuazu2PBdPBaaZG0AvmXiTCY
GrSTfmr0Ft71IzSOnpBvaO1cOL9MOI844eVJ7p9TsfNSLM3TBecjjgOqJhnXd9xc
ru1vO5Ki9lzcCVaNsZ9RVi0CAwEAAaN7MHkwCQYDVR0TBAIwADAsBglghkgBhvhC
AQ0EHxYdT3BlblNTTCBHZW5lcmF0ZWQgQ2VydGlmaWNhdGUwHQYDVR0OBBYEFGD3
7Nar8/wfIjcHkBEbugI5LEigMB8GA1UdIwQYMBaAFFuKFWZF8bQOlnTXZv7fOLCY
FPsEMA0GCSqGSIb3DQEBBQUAA4IBAQBEZ8GAdxiiQpRHt2NO5pitGPlnUo2DWZoV
CRiqYMgWzLbJfqmigHnFWMHwur3C3ba7kA4U9oEnYxL/dxLp67ssjeKabxfMBZ0/
GdV/JzoTl5Z7QSoU0t9HGZyaei4PmDZI6Ks8xBSmVSrqprAbJLq/XjEWlaNUhK5p
puteMofYc7yVkKZH5X8Lu5sORFdC2bP8hxMWYhstlYdDq82yGY45cBSl5amQCL4u
j5Mm37ztvXL/tQpgc1AB/mbV/0BmvHf3Twleq9B4f+AnT/ogEwlHIm3s9LElevZE
J9JJtmxO26qYHrx0BgJMPlFKnvgbwZ4nQc4yG92ZQ0ICGUZ6Vyuz
-----END CERTIFICATE-----
